(lp0
ccopy_reg
_reconstructor
p1
(cautotune.core.HyperbandOptimiser
HyperbandOptimiser
p2
c__builtin__
object
p3
Ntp4
Rp5
(dp6
S'arm_opt'
p7
(dp8
S'learning_rate'
p9
cnumpy.core.multiarray
scalar
p10
(cnumpy
dtype
p11
(S'f8'
p12
I0
I1
tp13
Rp14
(I3
S'<'
p15
NNNI-1
I-1
I0
tp16
bS'\xa7\xa4\x7f\xd2\xe7q\x80?'
p17
tp18
Rp19
sS'weight_decay'
p20
g10
(g14
S'\xec\x13\xf6H\xfd\xeb[?'
p21
tp22
Rp23
sS'n_resources'
p24
F3.0
sS'momentum'
p25
g10
(g14
S'\xc9\xc5\xed3d\x88\xe0?'
p26
tp27
Rp28
sS'batch_size'
p29
g10
(g11
(S'i8'
p30
I0
I1
tp31
Rp32
(I3
S'<'
p33
NNNI-1
I-1
I0
tp34
bS'>\x05\x00\x00\x00\x00\x00\x00'
p35
tp36
Rp37
ssS'name'
p38
S'Hyperband'
p39
sS'time_zero'
p40
F1524162004.498822
sS'arms'
p41
(lp42
g8
ag8
a(dp43
g9
g10
(g14
S'\xae]\xe4\xadS\xb34?'
p44
tp45
Rp46
sg20
g10
(g14
S'\xe5\x12\xde\xf6\xb0T\x03?'
p47
tp48
Rp49
sg24
I3
sg25
g10
(g14
S'\x1c\xd8\x9a\x1b\x1b\xb8\xe5?'
p50
tp51
Rp52
sg29
g10
(g32
S'\\\x02\x00\x00\x00\x00\x00\x00'
p53
tp54
Rp55
sasS'fx_opt'
p56
F0.20309999999999995
sS'Y_best'
p57
(lp58
F0.41269999999999996
aF0.20309999999999995
aF0.20309999999999995
asS'num_iterations'
p59
I0
sS'checkpoints'
p60
(lp61
F8.373785972595215
aF14.11686396598816
aF22.576318979263306
asS'cum_time'
p62
F22.576318979263306
sS'Y'
p63
(lp64
F0.41269999999999996
aF0.20309999999999995
aF0.6178
asS'val_loss'
p65
(lp66
F0.41733333333333333
aF0.2114166666666667
aF0.6245833333333333
asbag1
(cautotune.core.RandomOptimiser
RandomOptimiser
p67
g3
Ntp68
Rp69
(dp70
g7
(dp71
g9
g10
(g14
S'\xfe\xaa\xa58\xbc\xd6\xae?'
p72
tp73
Rp74
sg20
g10
(g14
S'\x8bM\x80\xb4\xc0Gh?'
p75
tp76
Rp77
sg24
I3
sg25
g10
(g14
S'&\xd4e\xc8\xde\xce\xe3?'
p78
tp79
Rp80
sg29
g10
(g32
S'\\\x07\x00\x00\x00\x00\x00\x00'
p81
tp82
Rp83
ssg38
S'Random'
p84
sg40
F1524162027.075941
sS'max_iter'
p85
Finf
sg41
(lp86
(dp87
g9
g10
(g14
S'\xbc\xcc#\xbb\xef\xf9\xc0>'
p88
tp89
Rp90
sg20
g10
(g14
S'\x07n\xc60\xe4\x9b\xbe>'
p91
tp92
Rp93
sg24
I3
sg25
g10
(g14
S'\xfe\xdb\x0e\xd9\xb8\x03\xe1?'
p94
tp95
Rp96
sg29
g10
(g32
S'\xd0\x01\x00\x00\x00\x00\x00\x00'
p97
tp98
Rp99
sa(dp100
g9
g10
(g14
S'\xda0\xbf\x9a!\x95\xe7>'
p101
tp102
Rp103
sg20
g10
(g14
S'A\x89\x10\xfa^\x96Y?'
p104
tp105
Rp106
sg24
I3
sg25
g10
(g14
S'\xbe\xa4\x0e\xdc\xdb\x19\xeb?'
p107
tp108
Rp109
sg29
g10
(g32
S'\xac\x04\x00\x00\x00\x00\x00\x00'
p110
tp111
Rp112
sa(dp113
g9
g10
(g14
S'\xd26@\xda\xaf\xf0\xba>'
p114
tp115
Rp116
sg20
g10
(g14
S'rJ-#\x19:\xdc>'
p117
tp118
Rp119
sg24
I3
sg25
g10
(g14
S'\xfc\x90\xe2KH\xf7\xee?'
p120
tp121
Rp122
sg29
g10
(g32
S'\\\x00\x00\x00\x00\x00\x00\x00'
p123
tp124
Rp125
sag71
a(dp126
g9
g10
(g14
S'\xf6\xcc3\xd6\xe6\x1e\xce>'
p127
tp128
Rp129
sg20
g10
(g14
S'\x89\x06\x1f\xc0\xf5\x0c\x14?'
p130
tp131
Rp132
sg24
I3
sg25
g10
(g14
S'B\xd8"\xefR\x96\xe9?'
p133
tp134
Rp135
sg29
g10
(g32
S'\x16\x03\x00\x00\x00\x00\x00\x00'
p136
tp137
Rp138
sa(dp139
g9
g10
(g14
S'\x99\xfa\xa03\x8b\xd7/?'
p140
tp141
Rp142
sg20
g10
(g14
S'\xf7\xa4\xadw\xb5y\x97?'
p143
tp144
Rp145
sg24
I3
sg25
g10
(g14
S'\xcb5\x9bP\x85\x07\xd8?'
p146
tp147
Rp148
sg29
g10
(g32
S'\xe6\x05\x00\x00\x00\x00\x00\x00'
p149
tp150
Rp151
sasg56
F0.11439999999999995
sg57
(lp152
F0.8956999999999999
aF0.8305
aF0.8305
aF0.11439999999999995
aF0.11439999999999995
aF0.11439999999999995
asg59
I6
sS'max_time'
p153
F22.576318979263306
sg62
F27.82522487640381
sg63
(lp154
F0.8956999999999999
aF0.8305
aF0.8586
aF0.11439999999999995
aF0.8839
aF0.8170999999999999
asg60
(lp155
F4.693759918212891
aF8.91048789024353
aF13.327574014663696
aF18.013747930526733
aF22.22725200653076
aF27.82522487640381
asg65
(lp156
F0.8933333333333333
aF0.8336666666666667
aF0.8555
aF0.1196666666666667
aF0.8925833333333333
aF0.8160833333333333
asba.